ccopy_reg
_reconstructor
p0
(cgoogle.oauth2.credentials
Credentials
p1
c__builtin__
object
p2
Ntp3
Rp4
(dp5
S'_token_uri'
p6
Vhttps://oauth2.googleapis.com/token
p7
sS'_scopes'
p8
(lp9
S'https://www.googleapis.com/auth/spreadsheets'
p10
asS'_id_token'
p11
NsS'token'
p12
Vya29.GluFB5b1TBvlZgS8qGLXVOch62K4UyYLoUTKK6tb2c-jL0u6VTO6apj_x9RZEKnp1q4GmOzaCiQElrlH6TYMbGS2D1P9xT1KWmKIuE4wvLeveCLK9O8vuE-76vFK
p13
sS'_refresh_token'
p14
V1/GBQu357ntnQiBVA21TdBmYJMccdmdGR0a05f69I0Ryc
p15
sS'_client_secret'
p16
VAXIcXUn9UhbYvk_F0CNv211G
p17
sS'_client_id'
p18
V747151769099-4s4hkott7s3ujaq8mja0kvup3heji26a.apps.googleusercontent.com
p19
sS'expiry'
p20
cdatetime
datetime
p21
(S'\x07\xe3\t\x10\t-4\tv\xf3'
p22
tp23
Rp24
sb.