ccopy_reg
_reconstructor
p0
(cgoogle.oauth2.credentials
Credentials
p1
c__builtin__
object
p2
Ntp3
Rp4
(dp5
S'_quota_project_id'
p6
NsS'_token_uri'
p7
Vhttps://oauth2.googleapis.com/token
p8
sS'_client_secret'
p9
VAXIcXUn9UhbYvk_F0CNv211G
p10
sS'_id_token'
p11
NsS'token'
p12
Vya29.ImC3B_tfHGF0vV7Ryqtc2fOIUJll_QJcFxhMUabe01NtvQYos1YSN-2YFjtHmTPYWPJtjmpwrLZBkXNabNY3msYk6Tvy_W4Yhnm1hd-aW6YuwILfCHgln8m1rGqCecuRtxw
p13
sS'_refresh_token'
p14
V1//03COEyjjkP5NPCgYIARAAGAMSNwF-L9IrAbE3SadNm_gCoE6mfE2i394La2kFr0kR_OdTb_CuW9tQKxxzm8F0wTBeSR66YjHL99U
p15
sS'_scopes'
p16
(lp17
S'https://www.googleapis.com/auth/spreadsheets'
p18
asS'_client_id'
p19
V747151769099-4s4hkott7s3ujaq8mja0kvup3heji26a.apps.googleusercontent.com
p20
sS'expiry'
p21
cdatetime
datetime
p22
(S'\x07\xe3\x0c\x1e\x0b7\x1f\n\x8e\xb8'
p23
tp24
Rp25
sb.