ccopy_reg
_reconstructor
p0
(cgoogle.oauth2.credentials
Credentials
p1
c__builtin__
object
p2
Ntp3
Rp4
(dp5
S'_token_uri'
p6
Vhttps://oauth2.googleapis.com/token
p7
sS'_client_secret'
p8
VAXIcXUn9UhbYvk_F0CNv211G
p9
sS'_id_token'
p10
NsS'token'
p11
Vya29.Il-2B6DTZHaNwxSmt3wOwL6EbSDxq-Csn_thYbPkrZT6KkZQ2iAkdQD156yFbPF7iqlRdpc7yawF7LsN4CwW5ozdrNSMjCqbz5c_CeqlF9_86sTIlkTb-g8R0vYQcsigBg
p12
sS'_refresh_token'
p13
V1//03COEyjjkP5NPCgYIARAAGAMSNwF-L9IrAbE3SadNm_gCoE6mfE2i394La2kFr0kR_OdTb_CuW9tQKxxzm8F0wTBeSR66YjHL99U
p14
sS'_scopes'
p15
(lp16
S'https://www.googleapis.com/auth/spreadsheets'
p17
asS'_client_id'
p18
V747151769099-4s4hkott7s3ujaq8mja0kvup3heji26a.apps.googleusercontent.com
p19
sS'expiry'
p20
cdatetime
datetime
p21
(S'\x07\xe3\x0c\x14\x0b4;\x02\rW'
p22
tp23
Rp24
sb.